target datalayout = "e-m:e-p270:32:32-p271:32:32-p272:64:64-i64:64-i128:128-f80:128-n8:16:32:64-S128"
target triple = "x86_64-pc-linux-gnu"

%"struct.pxrInternal_v0_24__pxrReserved__::TsTest_SplineData::Knot" = type <{ double, i32, [4 x i8], double, i8, [7 x i8], double, double, double, double, double, i8, i8, [6 x i8] }>

; Function Attrs: mustprogress nounwind uwtable
define noundef zeroext i1 @_ZNK32pxrInternal_v0_24__pxrReserved__17TsTest_SplineData4KnoteqERKS1_(ptr noundef nonnull align 8 dereferenceable(74) %0, ptr noundef nonnull align 8 dereferenceable(74) %1) #2 align 2 {
  %3 = alloca ptr, align 8
  %4 = alloca ptr, align 8
  store ptr %0, ptr %3, align 8
  store ptr %1, ptr %4, align 8
  %5 = load ptr, ptr %3, align 8
  %6 = getelementptr inbounds nuw %"struct.pxrInternal_v0_24__pxrReserved__::TsTest_SplineData::Knot", ptr %5, i32 0, i32 0
  %7 = load double, ptr %6, align 8
  %8 = load ptr, ptr %4, align 8
  %9 = getelementptr inbounds nuw %"struct.pxrInternal_v0_24__pxrReserved__::TsTest_SplineData::Knot", ptr %8, i32 0, i32 0
  %10 = load double, ptr %9, align 8
  %11 = fcmp oeq double %7, %10
  br i1 %11, label %12, label %94

12:                                               ; preds = %2
  %13 = getelementptr inbounds nuw %"struct.pxrInternal_v0_24__pxrReserved__::TsTest_SplineData::Knot", ptr %5, i32 0, i32 1
  %14 = load i32, ptr %13, align 8
  %15 = load ptr, ptr %4, align 8
  %16 = getelementptr inbounds nuw %"struct.pxrInternal_v0_24__pxrReserved__::TsTest_SplineData::Knot", ptr %15, i32 0, i32 1
  %17 = load i32, ptr %16, align 8
  %18 = icmp eq i32 %14, %17
  br i1 %18, label %19, label %94

19:                                               ; preds = %12
  %20 = getelementptr inbounds nuw %"struct.pxrInternal_v0_24__pxrReserved__::TsTest_SplineData::Knot", ptr %5, i32 0, i32 3
  %21 = load double, ptr %20, align 8
  %22 = load ptr, ptr %4, align 8
  %23 = getelementptr inbounds nuw %"struct.pxrInternal_v0_24__pxrReserved__::TsTest_SplineData::Knot", ptr %22, i32 0, i32 3
  %24 = load double, ptr %23, align 8
  %25 = fcmp oeq double %21, %24
  br i1 %25, label %26, label %94

26:                                               ; preds = %19
  %27 = getelementptr inbounds nuw %"struct.pxrInternal_v0_24__pxrReserved__::TsTest_SplineData::Knot", ptr %5, i32 0, i32 4
  %28 = load i8, ptr %27, align 8
  %29 = trunc i8 %28 to i1
  %30 = zext i1 %29 to i32
  %31 = load ptr, ptr %4, align 8
  %32 = getelementptr inbounds nuw %"struct.pxrInternal_v0_24__pxrReserved__::TsTest_SplineData::Knot", ptr %31, i32 0, i32 4
  %33 = load i8, ptr %32, align 8
  %34 = trunc i8 %33 to i1
  %35 = zext i1 %34 to i32
  %36 = icmp eq i32 %30, %35
  br i1 %36, label %37, label %94

37:                                               ; preds = %26
  %38 = getelementptr inbounds nuw %"struct.pxrInternal_v0_24__pxrReserved__::TsTest_SplineData::Knot", ptr %5, i32 0, i32 6
  %39 = load double, ptr %38, align 8
  %40 = load ptr, ptr %4, align 8
  %41 = getelementptr inbounds nuw %"struct.pxrInternal_v0_24__pxrReserved__::TsTest_SplineData::Knot", ptr %40, i32 0, i32 6
  %42 = load double, ptr %41, align 8
  %43 = fcmp oeq double %39, %42
  br i1 %43, label %44, label %94

44:                                               ; preds = %37
  %45 = getelementptr inbounds nuw %"struct.pxrInternal_v0_24__pxrReserved__::TsTest_SplineData::Knot", ptr %5, i32 0, i32 7
  %46 = load double, ptr %45, align 8
  %47 = load ptr, ptr %4, align 8
  %48 = getelementptr inbounds nuw %"struct.pxrInternal_v0_24__pxrReserved__::TsTest_SplineData::Knot", ptr %47, i32 0, i32 7
  %49 = load double, ptr %48, align 8
  %50 = fcmp oeq double %46, %49
  br i1 %50, label %51, label %94

51:                                               ; preds = %44
  %52 = getelementptr inbounds nuw %"struct.pxrInternal_v0_24__pxrReserved__::TsTest_SplineData::Knot", ptr %5, i32 0, i32 8
  %53 = load double, ptr %52, align 8
  %54 = load ptr, ptr %4, align 8
  %55 = getelementptr inbounds nuw %"struct.pxrInternal_v0_24__pxrReserved__::TsTest_SplineData::Knot", ptr %54, i32 0, i32 8
  %56 = load double, ptr %55, align 8
  %57 = fcmp oeq double %53, %56
  br i1 %57, label %58, label %94

58:                                               ; preds = %51
  %59 = getelementptr inbounds nuw %"struct.pxrInternal_v0_24__pxrReserved__::TsTest_SplineData::Knot", ptr %5, i32 0, i32 9
  %60 = load double, ptr %59, align 8
  %61 = load ptr, ptr %4, align 8
  %62 = getelementptr inbounds nuw %"struct.pxrInternal_v0_24__pxrReserved__::TsTest_SplineData::Knot", ptr %61, i32 0, i32 9
  %63 = load double, ptr %62, align 8
  %64 = fcmp oeq double %60, %63
  br i1 %64, label %65, label %94

65:                                               ; preds = %58
  %66 = getelementptr inbounds nuw %"struct.pxrInternal_v0_24__pxrReserved__::TsTest_SplineData::Knot", ptr %5, i32 0, i32 10
  %67 = load double, ptr %66, align 8
  %68 = load ptr, ptr %4, align 8
  %69 = getelementptr inbounds nuw %"struct.pxrInternal_v0_24__pxrReserved__::TsTest_SplineData::Knot", ptr %68, i32 0, i32 10
  %70 = load double, ptr %69, align 8
  %71 = fcmp oeq double %67, %70
  br i1 %71, label %72, label %94

72:                                               ; preds = %65
  %73 = getelementptr inbounds nuw %"struct.pxrInternal_v0_24__pxrReserved__::TsTest_SplineData::Knot", ptr %5, i32 0, i32 11
  %74 = load i8, ptr %73, align 8
  %75 = trunc i8 %74 to i1
  %76 = zext i1 %75 to i32
  %77 = load ptr, ptr %4, align 8
  %78 = getelementptr inbounds nuw %"struct.pxrInternal_v0_24__pxrReserved__::TsTest_SplineData::Knot", ptr %77, i32 0, i32 11
  %79 = load i8, ptr %78, align 8
  %80 = trunc i8 %79 to i1
  %81 = zext i1 %80 to i32
  %82 = icmp eq i32 %76, %81
  br i1 %82, label %83, label %94

83:                                               ; preds = %72
  %84 = getelementptr inbounds nuw %"struct.pxrInternal_v0_24__pxrReserved__::TsTest_SplineData::Knot", ptr %5, i32 0, i32 12
  %85 = load i8, ptr %84, align 1
  %86 = trunc i8 %85 to i1
  %87 = zext i1 %86 to i32
  %88 = load ptr, ptr %4, align 8
  %89 = getelementptr inbounds nuw %"struct.pxrInternal_v0_24__pxrReserved__::TsTest_SplineData::Knot", ptr %88, i32 0, i32 12
  %90 = load i8, ptr %89, align 1
  %91 = trunc i8 %90 to i1
  %92 = zext i1 %91 to i32
  %93 = icmp eq i32 %87, %92
  br label %94

94:                                               ; preds = %83, %72, %65, %58, %51, %44, %37, %26, %19, %12, %2
  %95 = phi i1 [ false, %72 ], [ false, %65 ], [ false, %58 ], [ false, %51 ], [ false, %44 ], [ false, %37 ], [ false, %26 ], [ false, %19 ], [ false, %12 ], [ false, %2 ], [ %93, %83 ]
  ret i1 %95
}