; Function Attrs: mustprogress nofree norecurse nosync nounwind willreturn memory(argmem: read) uwtable
define noundef zeroext i1 @_ZNK32pxrInternal_v0_24__pxrReserved__17TsTest_SplineData4KnoteqERKS1_(ptr nocapture noundef nonnull readonly align 8 dereferenceable(74) %0, ptr nocapture noundef nonnull readonly align 8 dereferenceable(74) %1) local_unnamed_addr #4 align 2 {
  %3 = load double, ptr %0, align 8
  %4 = load double, ptr %1, align 8
  %5 = fcmp oeq double %3, %4
  br i1 %5, label %6, label %72

6:                                                ; preds = %2
  %7 = getelementptr inbounds nuw i8, ptr %0, i64 8
  %8 = load i32, ptr %7, align 8
  %9 = getelementptr inbounds nuw i8, ptr %1, i64 8
  %10 = load i32, ptr %9, align 8
  %11 = icmp eq i32 %8, %10
  br i1 %11, label %12, label %72

12:                                               ; preds = %6
  %13 = getelementptr inbounds nuw i8, ptr %0, i64 16
  %14 = load double, ptr %13, align 8
  %15 = getelementptr inbounds nuw i8, ptr %1, i64 16
  %16 = load double, ptr %15, align 8
  %17 = fcmp oeq double %14, %16
  br i1 %17, label %18, label %72

18:                                               ; preds = %12
  %19 = getelementptr inbounds nuw i8, ptr %0, i64 24
  %20 = load i8, ptr %19, align 8
  %21 = getelementptr inbounds nuw i8, ptr %1, i64 24
  %22 = load i8, ptr %21, align 8
  %23 = xor i8 %22, %20
  %24 = and i8 %23, 1
  %25 = icmp eq i8 %24, 0
  br i1 %25, label %26, label %72

26:                                               ; preds = %18
  %27 = getelementptr inbounds nuw i8, ptr %0, i64 32
  %28 = load double, ptr %27, align 8
  %29 = getelementptr inbounds nuw i8, ptr %1, i64 32
  %30 = load double, ptr %29, align 8
  %31 = fcmp oeq double %28, %30
  br i1 %31, label %32, label %72

32:                                               ; preds = %26
  %33 = getelementptr inbounds nuw i8, ptr %0, i64 40
  %34 = load double, ptr %33, align 8
  %35 = getelementptr inbounds nuw i8, ptr %1, i64 40
  %36 = load double, ptr %35, align 8
  %37 = fcmp oeq double %34, %36
  br i1 %37, label %38, label %72

38:                                               ; preds = %32
  %39 = getelementptr inbounds nuw i8, ptr %0, i64 48
  %40 = load double, ptr %39, align 8
  %41 = getelementptr inbounds nuw i8, ptr %1, i64 48
  %42 = load double, ptr %41, align 8
  %43 = fcmp oeq double %40, %42
  br i1 %43, label %44, label %72

44:                                               ; preds = %38
  %45 = getelementptr inbounds nuw i8, ptr %0, i64 56
  %46 = load double, ptr %45, align 8
  %47 = getelementptr inbounds nuw i8, ptr %1, i64 56
  %48 = load double, ptr %47, align 8
  %49 = fcmp oeq double %46, %48
  br i1 %49, label %50, label %72

50:                                               ; preds = %44
  %51 = getelementptr inbounds nuw i8, ptr %0, i64 64
  %52 = load double, ptr %51, align 8
  %53 = getelementptr inbounds nuw i8, ptr %1, i64 64
  %54 = load double, ptr %53, align 8
  %55 = fcmp oeq double %52, %54
  br i1 %55, label %56, label %72

56:                                               ; preds = %50
  %57 = getelementptr inbounds nuw i8, ptr %0, i64 72
  %58 = load i8, ptr %57, align 8
  %59 = getelementptr inbounds nuw i8, ptr %1, i64 72
  %60 = load i8, ptr %59, align 8
  %61 = xor i8 %60, %58
  %62 = and i8 %61, 1
  %63 = icmp eq i8 %62, 0
  br i1 %63, label %64, label %72

64:                                               ; preds = %56
  %65 = getelementptr inbounds nuw i8, ptr %0, i64 73
  %66 = load i8, ptr %65, align 1
  %67 = getelementptr inbounds nuw i8, ptr %1, i64 73
  %68 = load i8, ptr %67, align 1
  %69 = xor i8 %68, %66
  %70 = and i8 %69, 1
  %71 = icmp eq i8 %70, 0
  br label %72

72:                                               ; preds = %64, %56, %50, %44, %38, %32, %26, %18, %12, %6, %2
  %73 = phi i1 [ false, %56 ], [ false, %50 ], [ false, %44 ], [ false, %38 ], [ false, %32 ], [ false, %26 ], [ false, %18 ], [ false, %12 ], [ false, %6 ], [ false, %2 ], [ %71, %64 ]
  ret i1 %73
}